target datalayout = "e-m:e-p270:32:32-p271:32:32-p272:64:64-i64:64-i128:128-f80:128-n8:16:32:64-S128"
target triple = "x86_64-pc-linux-gnu"

%"class.boost::unit_test::basic_cstring" = type { ptr, ptr }
%"struct.boost::debug::dbg_startup_info" = type { i64, i8, %"class.boost::unit_test::basic_cstring", %"class.boost::unit_test::basic_cstring", %"class.boost::unit_test::basic_cstring" }

@.str.7 = private unnamed_addr constant [4 x i8] c"dbx\00", align 1
@.str.13 = private unnamed_addr constant [3 x i8] c"-q\00", align 1
@.str.15 = private unnamed_addr constant [4 x i8] c"%ld\00", align 1
@.str.43 = private unnamed_addr constant [3 x i8] c"-c\00", align 1
@_ZZN5boost5debug12_GLOBAL__N_120prepare_dbx_cmd_lineERKNS0_16dbg_startup_infoEbE13cmd_line_buff = internal global [500 x i8] zeroinitializer, align 16
@.str.44 = private unnamed_addr constant [20 x i8] c"unlink %s;cont;%s%s\00", align 1
@.str.45 = private unnamed_addr constant [6 x i8] c"up 2;\00", align 1
@.str.46 = private unnamed_addr constant [1 x i8] zeroinitializer, align 1
@.str.47 = private unnamed_addr constant [19 x i8] c"echo \22 \22;list -w3;\00", align 1

; Function Attrs: inlinehint mustprogress nounwind uwtable
define linkonce_odr hidden noundef ptr @_ZNK5boost9unit_test13basic_cstringIKcE5beginEv(ptr noundef nonnull align 8 dereferenceable(16) %0) #2 comdat align 2 {
  %2 = alloca ptr, align 8
  store ptr %0, ptr %2, align 8, !tbaa !3
  %3 = load ptr, ptr %2, align 8
  %4 = getelementptr inbounds nuw %"class.boost::unit_test::basic_cstring", ptr %3, i32 0, i32 0
  %5 = load ptr, ptr %4, align 8, !tbaa !13
  ret ptr %5
}

; Function Attrs: mustprogress nounwind uwtable
define internal noundef ptr @_ZN5boost5debug12_GLOBAL__N_120prepare_dbx_cmd_lineERKNS0_16dbg_startup_infoEb(ptr noundef nonnull align 8 dereferenceable(64) %0, i1 noundef zeroext %1) #5 {
  %3 = alloca ptr, align 8
  %4 = alloca i8, align 1
  store ptr %0, ptr %3, align 8, !tbaa !3
  %5 = zext i1 %1 to i8
  store i8 %5, ptr %4, align 1, !tbaa !23
  %6 = load ptr, ptr %3, align 8, !tbaa !3
  %7 = getelementptr inbounds nuw %"struct.boost::debug::dbg_startup_info", ptr %6, i32 0, i32 4
  %8 = call noundef ptr @_ZNK5boost9unit_test13basic_cstringIKcE5beginEv(ptr noundef nonnull align 8 dereferenceable(16) %7)
  %9 = load ptr, ptr %3, align 8, !tbaa !3
  %10 = getelementptr inbounds nuw %"struct.boost::debug::dbg_startup_info", ptr %9, i32 0, i32 1
  %11 = load i8, ptr %10, align 8, !tbaa !29, !range !27, !noundef !28
  %12 = trunc i8 %11 to i1
  %13 = select i1 %12, ptr @.str.45, ptr @.str.46
  %14 = load i8, ptr %4, align 1, !tbaa !23, !range !27, !noundef !28
  %15 = trunc i8 %14 to i1
  %16 = select i1 %15, ptr @.str.47, ptr @.str.46
  %17 = call i32 (ptr, i64, ptr, ...) @snprintf(ptr noundef @_ZZN5boost5debug12_GLOBAL__N_120prepare_dbx_cmd_lineERKNS0_16dbg_startup_infoEbE13cmd_line_buff, i64 noundef 500, ptr noundef @.str.44, ptr noundef %8, ptr noundef %13, ptr noundef %16) #3
  ret ptr @_ZZN5boost5debug12_GLOBAL__N_120prepare_dbx_cmd_lineERKNS0_16dbg_startup_infoEbE13cmd_line_buff
}

; Function Attrs: mustprogress uwtable
define internal void @_ZN5boost5debug12_GLOBAL__N_120start_dbx_in_consoleERKNS0_16dbg_startup_infoE(ptr noundef nonnull align 8 dereferenceable(64) %0) #1 {
  %2 = alloca ptr, align 8
  %3 = alloca [16 x i8], align 16
  store ptr %0, ptr %2, align 8, !tbaa !3
  call void @llvm.lifetime.start.p0(i64 16, ptr %3) #3
  %4 = getelementptr inbounds [16 x i8], ptr %3, i64 0, i64 0
  %5 = load ptr, ptr %2, align 8, !tbaa !3
  %6 = getelementptr inbounds nuw %"struct.boost::debug::dbg_startup_info", ptr %5, i32 0, i32 0
  %7 = load i64, ptr %6, align 8, !tbaa !25
  %8 = call i32 (ptr, i64, ptr, ...) @snprintf(ptr noundef %4, i64 noundef 16, ptr noundef @.str.15, i64 noundef %7) #3
  %9 = load ptr, ptr %2, align 8, !tbaa !3
  %10 = call noundef ptr @_ZN5boost5debug12_GLOBAL__N_120prepare_dbx_cmd_lineERKNS0_16dbg_startup_infoEb(ptr noundef nonnull align 8 dereferenceable(64) %9, i1 noundef zeroext true)
  %11 = load ptr, ptr %2, align 8, !tbaa !3
  %12 = getelementptr inbounds nuw %"struct.boost::debug::dbg_startup_info", ptr %11, i32 0, i32 2
  %13 = call noundef ptr @_ZNK5boost9unit_test13basic_cstringIKcE5beginEv(ptr noundef nonnull align 8 dereferenceable(16) %12)
  %14 = getelementptr inbounds [16 x i8], ptr %3, i64 0, i64 0
  %15 = call noundef zeroext i1 (ptr, ...) @_ZN5boost5debug12_GLOBAL__N_111safe_execlpEPKcz(ptr noundef @.str.7, ptr noundef @.str.13, ptr noundef @.str.43, ptr noundef %10, ptr noundef %13, ptr noundef %14, i32 noundef 0)
  call void @llvm.lifetime.end.p0(i64 16, ptr %3) #3
  ret void
}