; Function Attrs: mustprogress nofree nounwind uwtable
define internal void @_ZN5boost5debug12_GLOBAL__N_120start_dbx_in_consoleERKNS0_16dbg_startup_infoE(ptr nocapture noundef nonnull readonly align 8 dereferenceable(64) %0) #15 {
  %2 = alloca [16 x i8], align 16
  call void @llvm.lifetime.start.p0(i64 16, ptr nonnull %2) #32
  %3 = load i64, ptr %0, align 8, !tbaa !36
  %4 = call i32 (ptr, i64, ptr, ...) @snprintf(ptr noundef nonnull dereferenceable(1) %2, i64 noundef 16, ptr noundef nonnull @.str.15, i64 noundef %3) #32
  %5 = getelementptr inbounds i8, ptr %0, i64 8
  %.val = load i8, ptr %5, align 8, !tbaa !39, !range !51, !noundef !52
  %6 = getelementptr inbounds i8, ptr %0, i64 48
  %.val3 = load ptr, ptr %6, align 8, !tbaa !16
  %7 = trunc nuw i8 %.val to i1
  %8 = select i1 %7, ptr @.str.45, ptr @.str.46
  %9 = tail call i32 (ptr, i64, ptr, ...) @snprintf(ptr noundef nonnull dereferenceable(1) @_ZZN5boost5debug12_GLOBAL__N_120prepare_dbx_cmd_lineERKNS0_16dbg_startup_infoEbE13cmd_line_buff, i64 noundef 500, ptr noundef nonnull @.str.44, ptr noundef %.val3, ptr noundef nonnull %8, ptr noundef nonnull @.str.47) #32
  %10 = getelementptr inbounds nuw i8, ptr %0, i64 16
  %11 = load ptr, ptr %10, align 8, !tbaa !16
  call void (ptr, ...) @_ZN5boost5debug12_GLOBAL__N_111safe_execlpEPKcz(ptr noundef nonnull @.str.7, ptr noundef nonnull @.str.13, ptr noundef nonnull @.str.43, ptr noundef nonnull @_ZZN5boost5debug12_GLOBAL__N_120prepare_dbx_cmd_lineERKNS0_16dbg_startup_infoEbE13cmd_line_buff, ptr noundef %11, ptr noundef nonnull %2, i32 noundef 0)
  call void @llvm.lifetime.end.p0(i64 16, ptr nonnull %2) #32
  ret void
}